target datalayout = "e-m:e-p270:32:32-p271:32:32-p272:64:64-i64:64-i128:128-f80:128-n8:16:32:64-S128"
target triple = "x86_64-pc-linux-gnu"

; Function Attrs: nounwind uwtable
define ptr @xSAT_FileRead(ptr noundef %0) #0 {
  %2 = alloca ptr, align 8
  %3 = alloca i32, align 4
  %4 = alloca ptr, align 8
  %5 = alloca i32, align 4
  store ptr %0, ptr %2, align 8, !tbaa !3
  call void @llvm.lifetime.start.p0(i64 4, ptr %3) #10
  call void @llvm.lifetime.start.p0(i64 8, ptr %4) #10
  call void @llvm.lifetime.start.p0(i64 4, ptr %5) #10
  %6 = load ptr, ptr %2, align 8, !tbaa !3
  %7 = call i32 @fseek(ptr noundef %6, i64 noundef 0, i32 noundef 2)
  %8 = load ptr, ptr %2, align 8, !tbaa !3
  %9 = call i64 @ftell(ptr noundef %8)
  %10 = trunc i64 %9 to i32
  store i32 %10, ptr %3, align 4, !tbaa !8
  %11 = load ptr, ptr %2, align 8, !tbaa !3
  call void @rewind(ptr noundef %11)
  %12 = load i32, ptr %3, align 4, !tbaa !8
  %13 = add nsw i32 %12, 3
  %14 = sext i32 %13 to i64
  %15 = mul i64 1, %14
  %16 = call noalias ptr @malloc(i64 noundef %15) #11
  store ptr %16, ptr %4, align 8, !tbaa !10
  %17 = load ptr, ptr %4, align 8, !tbaa !10
  %18 = load i32, ptr %3, align 4, !tbaa !8
  %19 = sext i32 %18 to i64
  %20 = load ptr, ptr %2, align 8, !tbaa !3
  %21 = call i64 @fread(ptr noundef %17, i64 noundef %19, i64 noundef 1, ptr noundef %20)
  %22 = trunc i64 %21 to i32
  store i32 %22, ptr %5, align 4, !tbaa !8
  %23 = load ptr, ptr %4, align 8, !tbaa !10
  %24 = load i32, ptr %3, align 4, !tbaa !8
  %25 = add nsw i32 %24, 0
  %26 = sext i32 %25 to i64
  %27 = getelementptr inbounds i8, ptr %23, i64 %26
  store i8 10, ptr %27, align 1, !tbaa !12
  %28 = load ptr, ptr %4, align 8, !tbaa !10
  %29 = load i32, ptr %3, align 4, !tbaa !8
  %30 = add nsw i32 %29, 1
  %31 = sext i32 %30 to i64
  %32 = getelementptr inbounds i8, ptr %28, i64 %31
  store i8 0, ptr %32, align 1, !tbaa !12
  %33 = load ptr, ptr %4, align 8, !tbaa !10
  call void @llvm.lifetime.end.p0(i64 4, ptr %5) #10
  call void @llvm.lifetime.end.p0(i64 8, ptr %4) #10
  call void @llvm.lifetime.end.p0(i64 4, ptr %3) #10
  ret ptr %33
}