; Function Attrs: nofree nounwind uwtable
define noalias noundef ptr @xSAT_FileRead(ptr noundef captures(none) %0) local_unnamed_addr #0 {
  %2 = tail call i32 @fseek(ptr noundef %0, i64 noundef 0, i32 noundef 2)
  %3 = tail call i64 @ftell(ptr noundef %0)
  tail call void @rewind(ptr noundef %0)
  %4 = shl i64 %3, 32
  %sext = add i64 %4, 12884901888
  %5 = ashr exact i64 %sext, 32
  %6 = tail call noalias ptr @malloc(i64 noundef %5) #11
  %7 = ashr exact i64 %4, 32
  %8 = tail call i64 @fread(ptr noundef %6, i64 noundef %7, i64 noundef 1, ptr noundef %0)
  %9 = getelementptr inbounds i8, ptr %6, i64 %7
  store i8 10, ptr %9, align 1, !tbaa !3
  %sext12 = add i64 %4, 4294967296
  %10 = ashr exact i64 %sext12, 32
  %11 = getelementptr inbounds i8, ptr %6, i64 %10
  store i8 0, ptr %11, align 1, !tbaa !3
  ret ptr %6
}